target datalayout = "e-m:e-p270:32:32-p271:32:32-p272:64:64-i64:64-i128:128-f80:128-n8:16:32:64-S128"
target triple = "x86_64-pc-linux-gnu"

; Function Attrs: nounwind uwtable
define internal i32 @ia5ncasecmp(ptr noundef %0, ptr noundef %1, i64 noundef %2) #0 {
  %4 = alloca i32, align 4
  %5 = alloca ptr, align 8
  %6 = alloca ptr, align 8
  %7 = alloca i64, align 8
  %8 = alloca i8, align 1
  %9 = alloca i8, align 1
  %10 = alloca i32, align 4
  store ptr %0, ptr %5, align 8, !tbaa !85
  store ptr %1, ptr %6, align 8, !tbaa !85
  store i64 %2, ptr %7, align 8, !tbaa !83
  br label %11

11:                                               ; preds = %70, %3
  %12 = load i64, ptr %7, align 8, !tbaa !83
  %13 = icmp ugt i64 %12, 0
  br i1 %13, label %14, label %77

14:                                               ; preds = %11
  %15 = load ptr, ptr %5, align 8, !tbaa !85
  %16 = load i8, ptr %15, align 1, !tbaa !24
  %17 = sext i8 %16 to i32
  %18 = load ptr, ptr %6, align 8, !tbaa !85
  %19 = load i8, ptr %18, align 1, !tbaa !24
  %20 = sext i8 %19 to i32
  %21 = icmp ne i32 %17, %20
  br i1 %21, label %22, label %69

22:                                               ; preds = %14
  call void @llvm.lifetime.start.p0(i64 1, ptr %8) #6
  %23 = load ptr, ptr %5, align 8, !tbaa !85
  %24 = load i8, ptr %23, align 1, !tbaa !24
  store i8 %24, ptr %8, align 1, !tbaa !24
  call void @llvm.lifetime.start.p0(i64 1, ptr %9) #6
  %25 = load ptr, ptr %6, align 8, !tbaa !85
  %26 = load i8, ptr %25, align 1, !tbaa !24
  store i8 %26, ptr %9, align 1, !tbaa !24
  %27 = load i8, ptr %8, align 1, !tbaa !24
  %28 = zext i8 %27 to i32
  %29 = icmp sge i32 %28, 65
  br i1 %29, label %30, label %39

30:                                               ; preds = %22
  %31 = load i8, ptr %8, align 1, !tbaa !24
  %32 = zext i8 %31 to i32
  %33 = icmp sle i32 %32, 90
  br i1 %33, label %34, label %39

34:                                               ; preds = %30
  %35 = load i8, ptr %8, align 1, !tbaa !24
  %36 = zext i8 %35 to i32
  %37 = add nsw i32 %36, 32
  %38 = trunc i32 %37 to i8
  store i8 %38, ptr %8, align 1, !tbaa !24
  br label %39

39:                                               ; preds = %34, %30, %22
  %40 = load i8, ptr %9, align 1, !tbaa !24
  %41 = zext i8 %40 to i32
  %42 = icmp sge i32 %41, 65
  br i1 %42, label %43, label %52

43:                                               ; preds = %39
  %44 = load i8, ptr %9, align 1, !tbaa !24
  %45 = zext i8 %44 to i32
  %46 = icmp sle i32 %45, 90
  br i1 %46, label %47, label %52

47:                                               ; preds = %43
  %48 = load i8, ptr %9, align 1, !tbaa !24
  %49 = zext i8 %48 to i32
  %50 = add nsw i32 %49, 32
  %51 = trunc i32 %50 to i8
  store i8 %51, ptr %9, align 1, !tbaa !24
  br label %52

52:                                               ; preds = %47, %43, %39
  %53 = load i8, ptr %8, align 1, !tbaa !24
  %54 = zext i8 %53 to i32
  %55 = load i8, ptr %9, align 1, !tbaa !24
  %56 = zext i8 %55 to i32
  %57 = icmp eq i32 %54, %56
  br i1 %57, label %58, label %59

58:                                               ; preds = %52
  store i32 4, ptr %10, align 4
  br label %67

59:                                               ; preds = %52
  %60 = load i8, ptr %8, align 1, !tbaa !24
  %61 = zext i8 %60 to i32
  %62 = load i8, ptr %9, align 1, !tbaa !24
  %63 = zext i8 %62 to i32
  %64 = icmp slt i32 %61, %63
  br i1 %64, label %65, label %66

65:                                               ; preds = %59
  store i32 -1, ptr %4, align 4
  store i32 1, ptr %10, align 4
  br label %67

66:                                               ; preds = %59
  store i32 1, ptr %4, align 4
  store i32 1, ptr %10, align 4
  br label %67

67:                                               ; preds = %66, %65, %58
  call void @llvm.lifetime.end.p0(i64 1, ptr %9) #6
  call void @llvm.lifetime.end.p0(i64 1, ptr %8) #6
  %68 = load i32, ptr %10, align 4
  switch i32 %68, label %80 [
    i32 4, label %70
    i32 1, label %78
  ]

69:                                               ; preds = %14
  br label %70

70:                                               ; preds = %69, %67
  %71 = load i64, ptr %7, align 8, !tbaa !83
  %72 = add i64 %71, -1
  store i64 %72, ptr %7, align 8, !tbaa !83
  %73 = load ptr, ptr %5, align 8, !tbaa !85
  %74 = getelementptr inbounds nuw i8, ptr %73, i32 1
  store ptr %74, ptr %5, align 8, !tbaa !85
  %75 = load ptr, ptr %6, align 8, !tbaa !85
  %76 = getelementptr inbounds nuw i8, ptr %75, i32 1
  store ptr %76, ptr %6, align 8, !tbaa !85
  br label %11, !llvm.loop !110

77:                                               ; preds = %11
  store i32 0, ptr %4, align 4
  br label %78

78:                                               ; preds = %77, %67
  %79 = load i32, ptr %4, align 4
  ret i32 %79

80:                                               ; preds = %67
  unreachable
}