; Function Attrs: nofree norecurse nosync nounwind memory(argmem: read) uwtable
define internal fastcc range(i32 -1, 2) i32 @ia5ncasecmp(ptr noundef readonly captures(none) %0, ptr noundef readonly captures(none) %1, i64 noundef %2) unnamed_addr #6 {
  %.not37 = icmp eq i64 %2, 0
  br i1 %.not37, label %.split.loop.exit35, label %.lr.ph

.lr.ph:                                           ; preds = %3, %12
  %.02640 = phi i64 [ %13, %12 ], [ %2, %3 ]
  %.02739 = phi ptr [ %15, %12 ], [ %1, %3 ]
  %.02838 = phi ptr [ %14, %12 ], [ %0, %3 ]
  %4 = load i8, ptr %.02838, align 1, !tbaa !11
  %5 = load i8, ptr %.02739, align 1, !tbaa !11
  %.not34 = icmp eq i8 %4, %5
  br i1 %.not34, label %12, label %6

6:                                                ; preds = %.lr.ph
  %7 = add i8 %4, -65
  %or.cond = icmp ult i8 %7, 26
  %8 = or disjoint i8 %4, 32
  %spec.select = select i1 %or.cond, i8 %8, i8 %4
  %9 = add i8 %5, -65
  %or.cond5 = icmp ult i8 %9, 26
  %10 = or disjoint i8 %5, 32
  %.024 = select i1 %or.cond5, i8 %10, i8 %5
  %11 = icmp eq i8 %spec.select, %.024
  br i1 %11, label %12, label %.split.loop.exit

12:                                               ; preds = %6, %.lr.ph
  %13 = add i64 %.02640, -1
  %14 = getelementptr inbounds nuw i8, ptr %.02838, i64 1
  %15 = getelementptr inbounds nuw i8, ptr %.02739, i64 1
  %.not = icmp eq i64 %13, 0
  br i1 %.not, label %.split.loop.exit35, label %.lr.ph, !llvm.loop !76

.split.loop.exit:                                 ; preds = %6
  %16 = icmp ult i8 %spec.select, %.024
  %..le = select i1 %16, i32 -1, i32 1
  br label %.split.loop.exit35

.split.loop.exit35:                               ; preds = %12, %3, %.split.loop.exit
  %.3 = phi i32 [ %..le, %.split.loop.exit ], [ 0, %3 ], [ 0, %12 ]
  ret i32 %.3
}